Certificate:
    Data:
        Version: 3 (0x2)
        Serial Number:
            01:63:7d:32:cf:26:6a:2a:68:06:7f:2e:17:4a:6c:a2
    Signature Algorithm: sha256WithRSAEncryption
        Issuer: CN=rasvpn
        Validity
            Not Before: Nov  3 11:00:14 2022 GMT
            Not After : Feb  5 11:00:14 2025 GMT
        Subject: CN=client
        Subject Public Key Info:
            Public Key Algorithm: rsaEncryption
                Public-Key: (2048 bit)
                Modulus:
                    00:c3:49:9f:51:98:99:90:04:bb:d8:3a:f8:16:99:
                    3f:27:ad:e2:e8:53:80:77:f3:51:8e:e3:00:ec:68:
                    b1:36:59:d5:f7:4d:f9:15:a0:3b:8b:aa:7d:9d:68:
                    30:94:86:d0:c8:d0:d5:e9:88:97:12:f9:54:9f:a0:
                    60:23:04:8b:2c:ae:b0:88:34:a1:61:1d:bf:c7:40:
                    fe:d2:55:fd:1f:46:6b:1d:57:43:72:18:aa:40:75:
                    ac:aa:9e:e0:fb:cb:c0:09:3d:52:70:c7:3b:fb:c0:
                    95:ec:13:47:e3:c1:ef:e8:c7:c2:24:5a:4c:7f:91:
                    3e:d8:6a:05:1a:8c:05:0d:73:b8:19:67:61:12:02:
                    74:b4:18:83:55:a1:b9:a4:95:ce:54:6f:ad:e5:3b:
                    8a:4b:50:1d:ef:93:bd:44:97:08:52:70:83:1c:0a:
                    4e:d0:0c:31:c3:96:55:24:97:40:fb:95:0c:e8:0d:
                    bc:80:3a:f1:a2:44:60:67:b0:b3:17:5d:84:aa:fe:
                    55:a4:ac:1a:8a:7a:91:63:8c:29:17:85:2b:5a:5f:
                    51:07:65:bc:1b:01:ba:fa:a0:54:98:68:c3:00:0b:
                    6f:98:b7:61:f9:01:56:60:79:68:a9:8a:60:1e:0c:
                    f1:60:62:01:57:cc:a5:9e:78:6f:97:a7:b9:5d:d2:
                    25:41
                Exponent: 65537 (0x10001)
        X509v3 extensions:
            X509v3 Basic Constraints: 
                CA:FALSE
            X509v3 Subject Key Identifier: 
                85:E3:77:D1:2D:AA:1D:06:D6:9A:BD:92:B5:79:C8:68:AA:33:03:0A
            X509v3 Authority Key Identifier: 
                keyid:AF:81:A2:71:3B:8E:65:C5:DD:F3:86:D2:2D:82:B1:B1:B5:3E:D8:78
                DirName:/CN=rasvpn
                serial:CE:F2:AD:A7:B6:CD:2C:56

            X509v3 Extended Key Usage: 
                TLS Web Client Authentication
            X509v3 Key Usage: 
                Digital Signature
    Signature Algorithm: sha256WithRSAEncryption
         ba:20:98:12:c7:76:f7:5b:4f:e0:ef:1d:d8:14:58:90:8b:a8:
         d9:60:51:ed:8f:8e:41:d0:fc:c1:c8:6e:05:c1:46:01:b3:9c:
         4a:37:00:74:a3:a0:a2:bd:4e:0f:d1:bb:13:27:b7:ee:59:95:
         11:8b:9a:9b:14:b9:b7:e5:e9:5a:61:3a:2e:80:01:3f:5c:ec:
         c6:53:70:61:f6:66:24:94:3e:c1:08:5e:e7:8f:70:90:7c:9c:
         80:fa:b7:76:ba:c4:b1:a2:2a:9b:09:fa:27:75:76:c2:46:5b:
         5c:74:66:35:3d:68:b5:70:19:38:5c:67:bd:97:3f:08:d9:d7:
         bb:c3:b2:7f:4f:27:03:31:0b:7b:65:7d:84:10:ef:b6:63:73:
         5a:f9:0a:7e:0a:ee:21:be:2c:f8:a2:be:50:65:b5:42:94:7e:
         68:b6:b0:c2:e4:a7:88:ec:94:ef:d2:ca:55:39:93:b0:5c:5f:
         60:dd:aa:c5:b6:6f:1b:2e:d1:28:94:2c:ec:2a:20:99:32:65:
         a0:d1:df:88:c6:81:b8:77:89:d5:5c:85:4f:1a:c5:05:e2:79:
         65:2d:03:e6:dc:2f:ae:22:b0:56:5e:3a:8b:67:a7:ac:dc:1f:
         12:57:fe:66:08:ed:a3:51:44:ed:84:ed:06:a6:ff:23:73:77:
         88:13:89:7c
-----BEGIN CERTIFICATE-----
MIIDPzCCAiegAwIBAgIQAWN9Ms8maipoBn8uF0psojANBgkqhkiG9w0BAQsFADAR
MQ8wDQYDVQQDDAZyYXN2cG4wHhcNMjIxMTAzMTEwMDE0WhcNMjUwMjA1MTEwMDE0
WjARMQ8wDQYDVQQDDAZjbGllbnQwggEiMA0GCSqGSIb3DQEBAQUAA4IBDwAwggEK
AoIBAQDDSZ9RmJmQBLvYOvgWmT8nreLoU4B381GO4wDsaLE2WdX3TfkVoDuLqn2d
aDCUhtDI0NXpiJcS+VSfoGAjBIssrrCINKFhHb/HQP7SVf0fRmsdV0NyGKpAdayq
nuD7y8AJPVJwxzv7wJXsE0fjwe/ox8IkWkx/kT7YagUajAUNc7gZZ2ESAnS0GINV
obmklc5Ub63lO4pLUB3vk71ElwhScIMcCk7QDDHDllUkl0D7lQzoDbyAOvGiRGBn
sLMXXYSq/lWkrBqKepFjjCkXhStaX1EHZbwbAbr6oFSYaMMAC2+Yt2H5AVZgeWip
imAeDPFgYgFXzKWeeG+Xp7ld0iVBAgMBAAGjgZIwgY8wCQYDVR0TBAIwADAdBgNV
HQ4EFgQUheN30S2qHQbWmr2StXnIaKozAwowQQYDVR0jBDowOIAUr4GicTuOZcXd
84bSLYKxsbU+2HihFaQTMBExDzANBgNVBAMMBnJhc3ZwboIJAM7yrae2zSxWMBMG
A1UdJQQMMAoGCCsGAQUFBwMCMAsGA1UdDwQEAwIHgDANBgkqhkiG9w0BAQsFAAOC
AQEAuiCYEsd291tP4O8d2BRYkIuo2WBR7Y+OQdD8wchuBcFGAbOcSjcAdKOgor1O
D9G7Eye37lmVEYuamxS5t+XpWmE6LoABP1zsxlNwYfZmJJQ+wQhe549wkHycgPq3
drrEsaIqmwn6J3V2wkZbXHRmNT1otXAZOFxnvZc/CNnXu8Oyf08nAzELe2V9hBDv
tmNzWvkKfgruIb4s+KK+UGW1QpR+aLawwuSniOyU79LKVTmTsFxfYN2qxbZvGy7R
KJQs7CogmTJloNHfiMaBuHeJ1VyFTxrFBeJ5ZS0D5twvriKwVl46i2enrNwfElf+
Zgjto1FE7YTtBqb/I3N3iBOJfA==
-----END CERTIFICATE-----
